EXPORTS
    _ZN2sf8DrawableD0Ev @1
    _ZN2sf8DrawableD1Ev @2
    _ZN3dte10CenterTextERN2sf4TextERKNS0_12RenderTargetE @3
    _ZN3dte11SpritesheetC1ESsN2sf7Vector2IjEES3_ @4
    _ZN3dte11SpritesheetC1Ev @5
    _ZN3dte11SpritesheetC2ESsN2sf7Vector2IjEES3_ @6
    _ZN3dte11SpritesheetC2Ev @7
    _ZN3dte11SpritesheetD1Ev @8
    _ZN3dte11SpritesheetD2Ev @9
    _ZN3dte12CenterSpriteERN2sf6SpriteERKNS0_12RenderTargetE @10
    _ZN3dte12StateManager12HandleEventsERN2sf5EventE @11
    _ZN3dte12StateManager16GetCurrentStatusEv @12
    _ZN3dte12StateManager5LogicERN2sf4TimeE @13
    _ZN3dte12StateManager6RenderEv @14
    _ZN3dte12StateManager9NextStateEv @15
    _ZN3dte12StateManager9PrevStateEv @16
    _ZN3dte12StateManagerC1ESt10unique_ptrINS_5StateESt14default_deleteIS2_EE @17
    _ZN3dte12StateManagerC1Ev @18
    _ZN3dte12StateManagerC2ESt10unique_ptrINS_5StateESt14default_deleteIS2_EE @19
    _ZN3dte12StateManagerC2Ev @20
    _ZN3dte12StateManagerD1Ev @21
    _ZN3dte12StateManagerD2Ev @22
    _ZN3dte13CenterTextHorERN2sf4TextERKNS0_12RenderTargetE @23
    _ZN3dte14CenterTextVertERN2sf4TextERKNS0_12RenderTargetE @24
    _ZN3dte14MaximizeWindowERKN2sf12RenderWindowE @25
    _ZN3dte14MinimizeWindowERKN2sf12RenderWindowE @26
    _ZN3dte15CenterSpriteHorERN2sf6SpriteERKNS0_12RenderTargetE @27
    _ZN3dte16CenterSpriteVertERN2sf6SpriteERKNS0_12RenderTargetE @28
    _ZN3dte19GetStringFromTime_TEx @29
    _ZN3dte4LineC1EN2sf7Vector2IfEES3_NS1_5ColorE @30
    _ZN3dte4LineC1ESt4pairIN2sf7Vector2IfEES4_ENS2_5ColorE @31
    _ZN3dte4LineC1Ev @32
    _ZN3dte4LineC2EN2sf7Vector2IfEES3_NS1_5ColorE @33
    _ZN3dte4LineC2ESt4pairIN2sf7Vector2IfEES4_ENS2_5ColorE @34
    _ZN3dte4LineC2Ev @35
    _ZN3dte4LineD0Ev @36
    _ZN3dte4LineD1Ev @37
    _ZN3dte4LineD2Ev @38
    _ZN3dte5StateD0Ev @39
    _ZN3dte5StateD1Ev @40
    _ZN3dte5StateD2Ev @41
    _ZN3dte6Logger10WriteErrorERKSs @42
    _ZN3dte6Logger11GetInstanceEv @43
    _ZN3dte6Logger12LogTimeErrorEv @44
    _ZN3dte6Logger12WriteErrorLnERKSs @45
    _ZN3dte6Logger13WriteStandardERKSs @46
    _ZN3dte6Logger15LogTimeStandardEv @47
    _ZN3dte6Logger15WriteStandardLnERKSs @48
    _ZN3dte6Logger4OpenERKSsS2_ @49
    _ZN3dte6LoggerC1Ev @50
    _ZN3dte6LoggerC2Ev @51
    _ZN3dte6LoggerD1Ev @52
    _ZN3dte6LoggerD2Ev @53
    _ZN3dte7GetTimeEv @54
    _ZN3dte8LuaState6doFileERKSs @55
    _ZN3dte8LuaState8doStringERKSs @56
    _ZN3dte8LuaStateC1Ev @57
    _ZN3dte8LuaStateC2Ev @58
    _ZN3dte8LuaStateD1Ev @59
    _ZN3dte8LuaStateD2Ev @60
    _ZN7luabind12value_vectorD0Ev @61
    _ZN7luabind12value_vectorD1Ev @62
    _ZNK3dte11Spritesheet10GetTextureEv @63
    _ZNK3dte11Spritesheet18GetImageDimensionsEv @64
    _ZNK3dte11Spritesheet19GetSpriteDimensionsEv @65
    _ZNK3dte11Spritesheet7GetRectEj @66
    _ZNK3dte11Spritesheet7GetRectEjj @67
    _ZNK3dte11Spritesheet9GetPerColEv @68
    _ZNK3dte11Spritesheet9GetPerRowEv @69
    _ZNK3dte4Line4drawERN2sf12RenderTargetENS1_12RenderStatesE @70
    _ZNK3dte8LuaStatecvP9lua_StateEv @71
    _ZNSt11_Deque_baseISt10unique_ptrIN3dte5StateESt14default_deleteIS2_EESaIS5_EE17_M_initialize_mapEy @72
    _ZNSt5dequeISt10unique_ptrIN3dte5StateESt14default_deleteIS2_EESaIS5_EE12emplace_backIIS5_EEEvDpOT_ @73
    _ZNSt5dequeISt10unique_ptrIN3dte5StateESt14default_deleteIS2_EESaIS5_EED1Ev @74
    _ZNSt6vectorIN2sf4RectIiEESaIS2_EE19_M_emplace_back_auxIIRKS2_EEEvDpOT_ @75
    _ZTIN2sf8DrawableE @76 DATA
    _ZTIN3dte4LineE @77 DATA
    _ZTIN3dte5StateE @78 DATA
    _ZTIN7luabind12value_vectorE @79 DATA
    _ZTISt12_Vector_baseIN7luabind5valueESaIS1_EE @80 DATA
    _ZTISt6vectorIN7luabind5valueESaIS1_EE @81 DATA
    _ZTSN2sf8DrawableE @82 DATA
    _ZTSN3dte4LineE @83 DATA
    _ZTSN3dte5StateE @84 DATA
    _ZTSN7luabind12value_vectorE @85 DATA
    _ZTSSt12_Vector_baseIN7luabind5valueESaIS1_EE @86 DATA
    _ZTSSt6vectorIN7luabind5valueESaIS1_EE @87 DATA
    _ZTVN3dte4LineE @88 DATA
    _ZTVN3dte5StateE @89 DATA
    _ZTVN7luabind12value_vectorE @90 DATA

IMPORTS

    libluabindd.dll._ZN7luabind10namespace_C1EPKc
    libluabindd.dll._ZN7luabind10namespace_C2EPKc
    libluabindd.dll._ZN7luabind10namespace_ixENS_5scopeE
    libluabindd.dll._ZN7luabind14get_class_infoERKNS_3adl8argumentE
    libluabindd.dll._ZN7luabind14get_weak_tableEP9lua_State
    libluabindd.dll._ZN7luabind15bind_class_infoEP9lua_State
    libluabindd.dll._ZN7luabind15get_class_namesEP9lua_State
    libluabindd.dll._ZN7luabind15get_main_threadEP9lua_State
    libluabindd.dll._ZN7luabind18get_pcall_callbackEv
    libluabindd.dll._ZN7luabind18set_pcall_callbackEPFiP9lua_StateE
    libluabindd.dll._ZN7luabind25disable_super_deprecationEv
    libluabindd.dll._ZN7luabind3nilE
    libluabindd.dll._ZN7luabind4openEP9lua_State
    libluabindd.dll._ZN7luabind5scopeC1ERKS0_
    libluabindd.dll._ZN7luabind5scopeC1ESt8auto_ptrINS_6detail12registrationEE
    libluabindd.dll._ZN7luabind5scopeC1Ev
    libluabindd.dll._ZN7luabind5scopeC2ERKS0_
    libluabindd.dll._ZN7luabind5scopeC2ESt8auto_ptrINS_6detail12registrationEE
    libluabindd.dll._ZN7luabind5scopeC2Ev
    libluabindd.dll._ZN7luabind5scopeD1Ev
    libluabindd.dll._ZN7luabind5scopeD2Ev
    libluabindd.dll._ZN7luabind5scopeaSERKS0_
    libluabindd.dll._ZN7luabind5scopecmES0_
    libluabindd.dll._ZN7luabind6detail10cast_graph6insertEyyPFPvS2_E
    libluabindd.dll._ZN7luabind6detail10cast_graphC1Ev
    libluabindd.dll._ZN7luabind6detail10cast_graphC2Ev
    libluabindd.dll._ZN7luabind6detail10cast_graphD1Ev
    libluabindd.dll._ZN7luabind6detail10cast_graphD2Ev
    libluabindd.dll._ZN7luabind6detail10class_base10add_memberEPNS0_12registrationE
    libluabindd.dll._ZN7luabind6detail10class_base15add_inner_scopeERNS_5scopeE
    libluabindd.dll._ZN7luabind6detail10class_base18add_default_memberEPNS0_12registrationE
    libluabindd.dll._ZN7luabind6detail10class_base19add_static_constantEPKci
    libluabindd.dll._ZN7luabind6detail10class_base4initERKNS_7type_idEyS4_y
    libluabindd.dll._ZN7luabind6detail10class_base8add_baseERKNS_7type_idEPFPvS5_E
    libluabindd.dll._ZN7luabind6detail10class_base8add_castEyyPFPvS2_E
    libluabindd.dll._ZN7luabind6detail10class_baseC1EPKc
    libluabindd.dll._ZN7luabind6detail10class_baseC2EPKc
    libluabindd.dll._ZN7luabind6detail10object_rep10deallocateEPv
    libluabindd.dll._ZN7luabind6detail10object_rep12set_instanceEPNS0_15instance_holderE
    libluabindd.dll._ZN7luabind6detail10object_rep14add_dependencyEP9lua_Statei
    libluabindd.dll._ZN7luabind6detail10object_rep23release_dependency_refsEP9lua_State
    libluabindd.dll._ZN7luabind6detail10object_rep4crepEv
    libluabindd.dll._ZN7luabind6detail10object_rep8allocateEy
    libluabindd.dll._ZN7luabind6detail10object_repC1EPNS0_15instance_holderEPNS0_9class_repE
    libluabindd.dll._ZN7luabind6detail10object_repC2EPNS0_15instance_holderEPNS0_9class_repE
    libluabindd.dll._ZN7luabind6detail10object_repD1Ev
    libluabindd.dll._ZN7luabind6detail10object_repD2Ev
    libluabindd.dll._ZN7luabind6detail11resume_implEP9lua_Stateii
    libluabindd.dll._ZN7luabind6detail12add_overloadERKNS_3adl6objectEPKcS4_
    libluabindd.dll._ZN7luabind6detail12class_id_map13local_id_baseE
    libluabindd.dll._ZN7luabind6detail12class_id_map3putEyRKNS_7type_idE
    libluabindd.dll._ZN7luabind6detail12class_id_mapC1Ev
    libluabindd.dll._ZN7luabind6detail12create_class6stage1EP9lua_State
    libluabindd.dll._ZN7luabind6detail12create_class6stage2EP9lua_State
    libluabindd.dll._ZN7luabind6detail12get_instanceEP9lua_Statei
    libluabindd.dll._ZN7luabind6detail12property_tagEP9lua_State
    libluabindd.dll._ZN7luabind6detail12registrationC1Ev
    libluabindd.dll._ZN7luabind6detail12registrationC2Ev
    libluabindd.dll._ZN7luabind6detail12registrationD0Ev
    libluabindd.dll._ZN7luabind6detail12registrationD1Ev
    libluabindd.dll._ZN7luabind6detail12registrationD2Ev
    libluabindd.dll._ZN7luabind6detail14class_registry12get_registryEP9lua_State
    libluabindd.dll._ZN7luabind6detail14class_registry9add_classERKNS_7type_idEPNS0_9class_repE
    libluabindd.dll._ZN7luabind6detail14class_registryC1EP9lua_State
    libluabindd.dll._ZN7luabind6detail14class_registryC2EP9lua_State
    libluabindd.dll._ZN7luabind6detail14get_class_nameEP9lua_StateRKNS_7type_idE
    libluabindd.dll._ZN7luabind6detail14invoke_contextC1Ev
    libluabindd.dll._ZN7luabind6detail15function_objectC2EPFiP9lua_StateE
    libluabindd.dll._ZN7luabind6detail15function_objectD0Ev
    libluabindd.dll._ZN7luabind6detail15function_objectD1Ev
    libluabindd.dll._ZN7luabind6detail15function_objectD2Ev
    libluabindd.dll._ZN7luabind6detail17allocate_class_idERKNS_7type_idE
    libluabindd.dll._ZN7luabind6detail17make_function_auxEP9lua_StatePNS0_15function_objectE
    libluabindd.dll._ZN7luabind6detail17push_new_instanceEP9lua_StatePNS0_9class_repE
    libluabindd.dll._ZN7luabind6detail19is_luabind_functionEP9lua_Statei
    libluabindd.dll._ZN7luabind6detail20handle_exception_auxEP9lua_State
    libluabindd.dll._ZN7luabind6detail21stack_content_by_nameEP9lua_Statei
    libluabindd.dll._ZN7luabind6detail22exception_handler_baseD0Ev
    libluabindd.dll._ZN7luabind6detail22exception_handler_baseD1Ev
    libluabindd.dll._ZN7luabind6detail23push_instance_metatableEP9lua_State
    libluabindd.dll._ZN7luabind6detail24do_call_member_selectionEP9lua_StatePKc
    libluabindd.dll._ZN7luabind6detail26register_exception_handlerEPNS0_22exception_handler_baseE
    libluabindd.dll._ZN7luabind6detail35not_threadsafe_not_defined_conflictEv
    libluabindd.dll._ZN7luabind6detail38no_error_checking_not_defined_conflictEv
    libluabindd.dll._ZN7luabind6detail5pcallEP9lua_Stateii
    libluabindd.dll._ZN7luabind6detail9class_rep14add_base_classERKNS1_9base_infoE
    libluabindd.dll._ZN7luabind6detail9class_rep14super_callbackEP9lua_State
    libluabindd.dll._ZN7luabind6detail9class_rep15cache_operatorsEP9lua_State
    libluabindd.dll._ZN7luabind6detail9class_rep19has_operator_in_luaEP9lua_Statei
    libluabindd.dll._ZN7luabind6detail9class_rep21static_class_gettableEP9lua_State
    libluabindd.dll._ZN7luabind6detail9class_rep22constructor_dispatcherEP9lua_State
    libluabindd.dll._ZN7luabind6detail9class_rep23lua_settable_dispatcherEP9lua_State
    libluabindd.dll._ZN7luabind6detail9class_rep8set_typeERKNS_7type_idE
    libluabindd.dll._ZN7luabind6detail9class_repC1EP9lua_StatePKc
    libluabindd.dll._ZN7luabind6detail9class_repC1ERKNS_7type_idEPKcP9lua_State
    libluabindd.dll._ZN7luabind6detail9class_repC2EP9lua_StatePKc
    libluabindd.dll._ZN7luabind6detail9class_repC2ERKNS_7type_idEPKcP9lua_State
    libluabindd.dll._ZN7luabind6detail9class_repD1Ev
    libluabindd.dll._ZN7luabind6detail9class_repD2Ev
    libluabindd.dll._ZN7luabind7module_C1EP9lua_StatePKc
    libluabindd.dll._ZN7luabind7module_C2EP9lua_StatePKc
    libluabindd.dll._ZN7luabind7module_ixENS_5scopeE
    libluabindd.dll._ZN7luabind8weak_ref4swapERS0_
    libluabindd.dll._ZN7luabind8weak_refC1EP9lua_StateS2_i
    libluabindd.dll._ZN7luabind8weak_refC1ERKS0_
    libluabindd.dll._ZN7luabind8weak_refC1Ev
    libluabindd.dll._ZN7luabind8weak_refC2EP9lua_StateS2_i
    libluabindd.dll._ZN7luabind8weak_refC2ERKS0_
    libluabindd.dll._ZN7luabind8weak_refC2Ev
    libluabindd.dll._ZN7luabind8weak_refD1Ev
    libluabindd.dll._ZN7luabind8weak_refD2Ev
    libluabindd.dll._ZN7luabind8weak_refaSERKS0_
    libluabindd.dll._ZNK7luabind11cast_failed4whatEv
    libluabindd.dll._ZNK7luabind5error4whatEv
    libluabindd.dll._ZNK7luabind5scope9register_EP9lua_State
    libluabindd.dll._ZNK7luabind6detail10cast_graph4castEPvyyyPKv
    libluabindd.dll._ZNK7luabind6detail10class_base4nameEv
    libluabindd.dll._ZNK7luabind6detail10object_rep12get_instanceEy
    libluabindd.dll._ZNK7luabind6detail10object_rep8is_constEv
    libluabindd.dll._ZNK7luabind6detail14class_registry10find_classERKNS_7type_idE
    libluabindd.dll._ZNK7luabind6detail14class_registry11get_classesEv
    libluabindd.dll._ZNK7luabind6detail14class_registry12cpp_instanceEv
    libluabindd.dll._ZNK7luabind6detail14class_registry12lua_instanceEv
    libluabindd.dll._ZNK7luabind6detail14class_registry9cpp_classEv
    libluabindd.dll._ZNK7luabind6detail14class_registry9lua_classEv
    libluabindd.dll._ZNK7luabind6detail14invoke_context12format_errorEP9lua_StatePKNS0_15function_objectE
    libluabindd.dll._ZNK7luabind6detail14invoke_contextcvbEv
    libluabindd.dll._ZNK7luabind6detail22exception_handler_base8try_nextEP9lua_State
    libluabindd.dll._ZNK7luabind6detail9class_rep13metatable_refEv
    libluabindd.dll._ZNK7luabind6detail9class_rep14get_class_typeEv
    libluabindd.dll._ZNK7luabind6detail9class_rep17get_default_tableEP9lua_State
    libluabindd.dll._ZNK7luabind6detail9class_rep4nameEv
    libluabindd.dll._ZNK7luabind6detail9class_rep4typeEv
    libluabindd.dll._ZNK7luabind6detail9class_rep5basesEv
    libluabindd.dll._ZNK7luabind6detail9class_rep5castsEv
    libluabindd.dll._ZNK7luabind6detail9class_rep8allocateEP9lua_State
    libluabindd.dll._ZNK7luabind6detail9class_rep9get_tableEP9lua_State
    libluabindd.dll._ZNK7luabind8weak_ref2idEv
    libluabindd.dll._ZNK7luabind8weak_ref3getEP9lua_State
    libluabindd.dll._ZNK7luabind8weak_ref5stateEv
    libluabindd.dll._ZTIN7luabind11cast_failedE
    libluabindd.dll._ZTIN7luabind5errorE
    libluabindd.dll._ZTIN7luabind6detail12registrationE
    libluabindd.dll._ZTIN7luabind6detail15function_objectE
    libluabindd.dll._ZTIN7luabind6detail22exception_handler_baseE
    libluabindd.dll._ZTVN7luabind11cast_failedE
    libluabindd.dll._ZTVN7luabind5errorE
    libluabindd.dll._ZTVN7luabind6detail12registrationE
    libluabindd.dll._ZTVN7luabind6detail15function_objectE
    libluabindd.dll._ZTVN7luabind6detail22exception_handler_baseE
    lua5.2.dll.luaC_barrier_
    lua5.2.dll.luaC_barrierback_
    lua5.2.dll.luaC_barrierproto_
    lua5.2.dll.luaC_changemode
    lua5.2.dll.luaC_checkfinalizer
    lua5.2.dll.luaC_checkupvalcolor
    lua5.2.dll.luaC_forcestep
    lua5.2.dll.luaC_freeallobjects
    lua5.2.dll.luaC_fullgc
    lua5.2.dll.luaC_newobj
    lua5.2.dll.luaC_runtilstate
    lua5.2.dll.luaC_step
    lua5.2.dll.luaD_call
    lua5.2.dll.luaD_growstack
    lua5.2.dll.luaD_hook
    lua5.2.dll.luaD_pcall
    lua5.2.dll.luaD_poscall
    lua5.2.dll.luaD_precall
    lua5.2.dll.luaD_protectedparser
    lua5.2.dll.luaD_rawrunprotected
    lua5.2.dll.luaD_reallocstack
    lua5.2.dll.luaD_shrinkstack
    lua5.2.dll.luaD_throw
    lua5.2.dll.luaE_extendCI
    lua5.2.dll.luaE_freeCI
    lua5.2.dll.luaE_freethread
    lua5.2.dll.luaE_setdebt
    lua5.2.dll.luaF_close
    lua5.2.dll.luaF_findupval
    lua5.2.dll.luaF_freeproto
    lua5.2.dll.luaF_freeupval
    lua5.2.dll.luaF_getlocalname
    lua5.2.dll.luaF_newCclosure
    lua5.2.dll.luaF_newLclosure
    lua5.2.dll.luaF_newproto
    lua5.2.dll.luaF_newupval
    lua5.2.dll.luaG_aritherror
    lua5.2.dll.luaG_concaterror
    lua5.2.dll.luaG_errormsg
    lua5.2.dll.luaG_ordererror
    lua5.2.dll.luaG_runerror
    lua5.2.dll.luaG_typeerror
    lua5.2.dll.luaH_free
    lua5.2.dll.luaH_get
    lua5.2.dll.luaH_getint
    lua5.2.dll.luaH_getn
    lua5.2.dll.luaH_getstr
    lua5.2.dll.luaH_new
    lua5.2.dll.luaH_newkey
    lua5.2.dll.luaH_next
    lua5.2.dll.luaH_resize
    lua5.2.dll.luaH_resizearray
    lua5.2.dll.luaH_set
    lua5.2.dll.luaH_setint
    lua5.2.dll.luaK_checkstack
    lua5.2.dll.luaK_codeABC
    lua5.2.dll.luaK_codeABx
    lua5.2.dll.luaK_codek
    lua5.2.dll.luaK_concat
    lua5.2.dll.luaK_dischargevars
    lua5.2.dll.luaK_exp2RK
    lua5.2.dll.luaK_exp2anyreg
    lua5.2.dll.luaK_exp2anyregup
    lua5.2.dll.luaK_exp2nextreg
    lua5.2.dll.luaK_exp2val
    lua5.2.dll.luaK_fixline
    lua5.2.dll.luaK_getlabel
    lua5.2.dll.luaK_goiffalse
    lua5.2.dll.luaK_goiftrue
    lua5.2.dll.luaK_indexed
    lua5.2.dll.luaK_infix
    lua5.2.dll.luaK_jump
    lua5.2.dll.luaK_nil
    lua5.2.dll.luaK_numberK
    lua5.2.dll.luaK_patchclose
    lua5.2.dll.luaK_patchlist
    lua5.2.dll.luaK_patchtohere
    lua5.2.dll.luaK_posfix
    lua5.2.dll.luaK_prefix
    lua5.2.dll.luaK_reserveregs
    lua5.2.dll.luaK_ret
    lua5.2.dll.luaK_self
    lua5.2.dll.luaK_setlist
    lua5.2.dll.luaK_setoneret
    lua5.2.dll.luaK_setreturns
    lua5.2.dll.luaK_storevar
    lua5.2.dll.luaK_stringK
    lua5.2.dll.luaL_addlstring
    lua5.2.dll.luaL_addstring
    lua5.2.dll.luaL_addvalue
    lua5.2.dll.luaL_argerror
    lua5.2.dll.luaL_buffinit
    lua5.2.dll.luaL_buffinitsize
    lua5.2.dll.luaL_callmeta
    lua5.2.dll.luaL_checkany
    lua5.2.dll.luaL_checkinteger
    lua5.2.dll.luaL_checklstring
    lua5.2.dll.luaL_checknumber
    lua5.2.dll.luaL_checkoption
    lua5.2.dll.luaL_checkstack
    lua5.2.dll.luaL_checktype
    lua5.2.dll.luaL_checkudata
    lua5.2.dll.luaL_checkunsigned
    lua5.2.dll.luaL_checkversion_
    lua5.2.dll.luaL_error
    lua5.2.dll.luaL_execresult
    lua5.2.dll.luaL_fileresult
    lua5.2.dll.luaL_getmetafield
    lua5.2.dll.luaL_getsubtable
    lua5.2.dll.luaL_gsub
    lua5.2.dll.luaL_len
    lua5.2.dll.luaL_loadbufferx
    lua5.2.dll.luaL_loadfilex
    lua5.2.dll.luaL_loadstring
    lua5.2.dll.luaL_newmetatable
    lua5.2.dll.luaL_newstate
    lua5.2.dll.luaL_openlibs
    lua5.2.dll.luaL_optinteger
    lua5.2.dll.luaL_optlstring
    lua5.2.dll.luaL_optnumber
    lua5.2.dll.luaL_optunsigned
    lua5.2.dll.luaL_prepbuffsize
    lua5.2.dll.luaL_pushresult
    lua5.2.dll.luaL_pushresultsize
    lua5.2.dll.luaL_ref
    lua5.2.dll.luaL_requiref
    lua5.2.dll.luaL_setfuncs
    lua5.2.dll.luaL_setmetatable
    lua5.2.dll.luaL_testudata
    lua5.2.dll.luaL_tolstring
    lua5.2.dll.luaL_traceback
    lua5.2.dll.luaL_unref
    lua5.2.dll.luaL_where
    lua5.2.dll.luaM_growaux_
    lua5.2.dll.luaM_realloc_
    lua5.2.dll.luaM_toobig
    lua5.2.dll.luaO_arith
    lua5.2.dll.luaO_ceillog2
    lua5.2.dll.luaO_chunkid
    lua5.2.dll.luaO_fb2int
    lua5.2.dll.luaO_hexavalue
    lua5.2.dll.luaO_int2fb
    lua5.2.dll.luaO_nilobject_
    lua5.2.dll.luaO_pushfstring
    lua5.2.dll.luaO_pushvfstring
    lua5.2.dll.luaO_str2d
    lua5.2.dll.luaP_opmodes
    lua5.2.dll.luaP_opnames
    lua5.2.dll.luaS_eqlngstr
    lua5.2.dll.luaS_eqstr
    lua5.2.dll.luaS_hash
    lua5.2.dll.luaS_new
    lua5.2.dll.luaS_newlstr
    lua5.2.dll.luaS_newudata
    lua5.2.dll.luaS_resize
    lua5.2.dll.luaT_gettm
    lua5.2.dll.luaT_gettmbyobj
    lua5.2.dll.luaT_init
    lua5.2.dll.luaT_typenames_
    lua5.2.dll.luaU_dump
    lua5.2.dll.luaU_header
    lua5.2.dll.luaU_undump
    lua5.2.dll.luaV_arith
    lua5.2.dll.luaV_concat
    lua5.2.dll.luaV_equalobj_
    lua5.2.dll.luaV_execute
    lua5.2.dll.luaV_finishOp
    lua5.2.dll.luaV_gettable
    lua5.2.dll.luaV_lessequal
    lua5.2.dll.luaV_lessthan
    lua5.2.dll.luaV_objlen
    lua5.2.dll.luaV_settable
    lua5.2.dll.luaV_tonumber
    lua5.2.dll.luaV_tostring
    lua5.2.dll.luaX_init
    lua5.2.dll.luaX_lookahead
    lua5.2.dll.luaX_newstring
    lua5.2.dll.luaX_next
    lua5.2.dll.luaX_setinput
    lua5.2.dll.luaX_syntaxerror
    lua5.2.dll.luaX_token2str
    lua5.2.dll.luaY_parser
    lua5.2.dll.luaZ_fill
    lua5.2.dll.luaZ_init
    lua5.2.dll.luaZ_openspace
    lua5.2.dll.luaZ_read
    lua5.2.dll.lua_absindex
    lua5.2.dll.lua_arith
    lua5.2.dll.lua_atpanic
    lua5.2.dll.lua_callk
    lua5.2.dll.lua_checkstack
    lua5.2.dll.lua_close
    lua5.2.dll.lua_compare
    lua5.2.dll.lua_concat
    lua5.2.dll.lua_copy
    lua5.2.dll.lua_createtable
    lua5.2.dll.lua_dump
    lua5.2.dll.lua_error
    lua5.2.dll.lua_gc
    lua5.2.dll.lua_getallocf
    lua5.2.dll.lua_getctx
    lua5.2.dll.lua_getfield
    lua5.2.dll.lua_getglobal
    lua5.2.dll.lua_gethook
    lua5.2.dll.lua_gethookcount
    lua5.2.dll.lua_gethookmask
    lua5.2.dll.lua_getinfo
    lua5.2.dll.lua_getlocal
    lua5.2.dll.lua_getmetatable
    lua5.2.dll.lua_getstack
    lua5.2.dll.lua_gettable
    lua5.2.dll.lua_gettop
    lua5.2.dll.lua_getupvalue
    lua5.2.dll.lua_getuservalue
    lua5.2.dll.lua_ident
    lua5.2.dll.lua_insert
    lua5.2.dll.lua_iscfunction
    lua5.2.dll.lua_isnumber
    lua5.2.dll.lua_isstring
    lua5.2.dll.lua_isuserdata
    lua5.2.dll.lua_len
    lua5.2.dll.lua_load
    lua5.2.dll.lua_newstate
    lua5.2.dll.lua_newthread
    lua5.2.dll.lua_newuserdata
    lua5.2.dll.lua_next
    lua5.2.dll.lua_pcallk
    lua5.2.dll.lua_pushboolean
    lua5.2.dll.lua_pushcclosure
    lua5.2.dll.lua_pushfstring
    lua5.2.dll.lua_pushinteger
    lua5.2.dll.lua_pushlightuserdata
    lua5.2.dll.lua_pushlstring
    lua5.2.dll.lua_pushnil
    lua5.2.dll.lua_pushnumber
    lua5.2.dll.lua_pushstring
    lua5.2.dll.lua_pushthread
    lua5.2.dll.lua_pushunsigned
    lua5.2.dll.lua_pushvalue
    lua5.2.dll.lua_pushvfstring
    lua5.2.dll.lua_rawequal
    lua5.2.dll.lua_rawget
    lua5.2.dll.lua_rawgeti
    lua5.2.dll.lua_rawgetp
    lua5.2.dll.lua_rawlen
    lua5.2.dll.lua_rawset
    lua5.2.dll.lua_rawseti
    lua5.2.dll.lua_rawsetp
    lua5.2.dll.lua_remove
    lua5.2.dll.lua_replace
    lua5.2.dll.lua_resume
    lua5.2.dll.lua_setallocf
    lua5.2.dll.lua_setfield
    lua5.2.dll.lua_setglobal
    lua5.2.dll.lua_sethook
    lua5.2.dll.lua_setlocal
    lua5.2.dll.lua_setmetatable
    lua5.2.dll.lua_settable
    lua5.2.dll.lua_settop
    lua5.2.dll.lua_setupvalue
    lua5.2.dll.lua_setuservalue
    lua5.2.dll.lua_status
    lua5.2.dll.lua_toboolean
    lua5.2.dll.lua_tocfunction
    lua5.2.dll.lua_tointegerx
    lua5.2.dll.lua_tolstring
    lua5.2.dll.lua_tonumberx
    lua5.2.dll.lua_topointer
    lua5.2.dll.lua_tothread
    lua5.2.dll.lua_tounsignedx
    lua5.2.dll.lua_touserdata
    lua5.2.dll.lua_type
    lua5.2.dll.lua_typename
    lua5.2.dll.lua_upvalueid
    lua5.2.dll.lua_upvaluejoin
    lua5.2.dll.lua_version
    lua5.2.dll.lua_xmove
    lua5.2.dll.lua_yieldk
    lua5.2.dll.luai_ctype_
    lua5.2.dll.luaopen_base
    lua5.2.dll.luaopen_bit32
    lua5.2.dll.luaopen_coroutine
    lua5.2.dll.luaopen_debug
    lua5.2.dll.luaopen_io
    lua5.2.dll.luaopen_math
    lua5.2.dll.luaopen_os
    lua5.2.dll.luaopen_package
    lua5.2.dll.luaopen_string
    lua5.2.dll.luaopen_table
