EXPORTS
    _ZN3dte12StateManager10initializeEPNS_5StateE @1
    _ZN3dte12StateManager11SwitchStateEv @2
    _ZN3dte12StateManager12HandleEventsEv @3
    _ZN3dte12StateManager5LogicERN2sf4TimeE @4
    _ZN3dte12StateManager6RenderEv @5
    _ZN3dte12StateManagerC1EPNS_5StateE @6
    _ZN3dte12StateManagerC1Ev @7
    _ZN3dte12StateManagerC2EPNS_5StateE @8
    _ZN3dte12StateManagerC2Ev @9
    _ZN3dte12StateManagerD1Ev @10
    _ZN3dte12StateManagerD2Ev @11
    _ZN3dte13CenterTextHorERN2sf4TextERKNS0_12RenderWindowE @12
    _ZN3dte19getStringFromTime_TEl @13
    _ZN3dte5StateD0Ev @14
    _ZN3dte5StateD1Ev @15
    _ZN3dte5StateD2Ev @16
    _ZNKSt10unique_ptrIN3dte5StateESt14default_deleteIS1_EE3getEv @17
    _ZNKSt10unique_ptrIN3dte5StateESt14default_deleteIS1_EEcvbEv @18
    _ZNKSt10unique_ptrIN3dte5StateESt14default_deleteIS1_EEptEv @19
    _ZNKSt14default_deleteIN3dte5StateEEclEPS1_ @20
    _ZNSt10_Head_baseILj0EPN3dte5StateELb0EE7_M_headERKS3_ @21
    _ZNSt10_Head_baseILj0EPN3dte5StateELb0EE7_M_headERS3_ @22
    _ZNSt10_Head_baseILj1ESt14default_deleteIN3dte5StateEELb1EE7_M_headERS4_ @23
    _ZNSt10unique_ptrIN3dte5StateESt14default_deleteIS1_EE11get_deleterEv @24
    _ZNSt10unique_ptrIN3dte5StateESt14default_deleteIS1_EE5resetEPS1_ @25
    _ZNSt10unique_ptrIN3dte5StateESt14default_deleteIS1_EED1Ev @26
    _ZNSt11_Tuple_implILj0EIPN3dte5StateESt14default_deleteIS1_EEE7_M_headERKS5_ @27
    _ZNSt11_Tuple_implILj0EIPN3dte5StateESt14default_deleteIS1_EEE7_M_headERS5_ @28
    _ZNSt11_Tuple_implILj1EISt14default_deleteIN3dte5StateEEEE7_M_headERS4_ @29
    _ZSt12__get_helperILj0EPN3dte5StateEISt14default_deleteIS1_EEENSt11__add_c_refIT0_E4typeERKSt11_Tuple_implIXT_EIS6_DpT1_EE @30
    _ZSt12__get_helperILj0EPN3dte5StateEISt14default_deleteIS1_EEENSt9__add_refIT0_E4typeERSt11_Tuple_implIXT_EIS6_DpT1_EE @31
    _ZSt12__get_helperILj1ESt14default_deleteIN3dte5StateEEIEENSt9__add_refIT0_E4typeERSt11_Tuple_implIXT_EIS5_DpT1_EE @32
    _ZSt3getILj0EIPN3dte5StateESt14default_deleteIS1_EEENSt11__add_c_refINSt13tuple_elementIXT_ESt5tupleIIDpT0_EEE4typeEE4typeERKSA_ @33
    _ZSt3getILj0EIPN3dte5StateESt14default_deleteIS1_EEENSt9__add_refINSt13tuple_elementIXT_ESt5tupleIIDpT0_EEE4typeEE4typeERSA_ @34
    _ZSt3getILj1EIPN3dte5StateESt14default_deleteIS1_EEENSt9__add_refINSt13tuple_elementIXT_ESt5tupleIIDpT0_EEE4typeEE4typeERSA_ @35
    _ZSt4moveIRPN3dte5StateEEONSt16remove_referenceIT_E4typeEOS5_ @36
    _ZSt4swapIPN3dte5StateEEvRT_S4_ @37
    _ZTIN3dte5StateE @38 DATA
    _ZTSN3dte5StateE @39 DATA
    _ZTVN3dte5StateE @40 DATA
